; Function Attrs: mustprogress uwtable
define internal void @_ZN12_GLOBAL__N_116SmtrPrintVisitor3muxEN5Yosys10Functional4NodeES3_S3_S3_(ptr dead_on_unwind noalias writable sret(%"class.Yosys::SExpr") align 8 %0, ptr noundef nonnull align 8 dereferenceable(56) %1, ptr readnone captures(none) %2, i32 %3, ptr %4, i32 %5, ptr noundef readonly byval(%"class.Yosys::Functional::Node") align 8 captures(none) %6, ptr noundef readonly byval(%"class.Yosys::Functional::Node") align 8 captures(none) %7) unnamed_addr #5 align 2 personality ptr @__gxx_personality_v0 {
  %9 = alloca %"class.Yosys::Functional::Node", align 8
  %10 = alloca %"class.Yosys::Functional::Node", align 8
  %11 = alloca %"class.Yosys::Functional::Node", align 8
  %12 = alloca %"class.Yosys::SExpr", align 8
  %13 = alloca %"class.Yosys::SExpr", align 8
  %14 = alloca %"class.Yosys::SExpr", align 8
  %15 = alloca %"class.Yosys::SExpr", align 8
  call void @llvm.lifetime.start.p0(i64 40, ptr nonnull %12) #26
  call void @llvm.lifetime.start.p0(i64 40, ptr nonnull %13) #26
  %16 = getelementptr inbounds nuw i8, ptr %1, i64 8
  %.sroa.04.0.copyload = load ptr, ptr %7, align 8, !tbaa !544
  %.sroa.25.0..sroa_idx = getelementptr inbounds nuw i8, ptr %7, i64 8
  %.sroa.25.0.copyload = load i32, ptr %.sroa.25.0..sroa_idx, align 8, !tbaa !46
  call void @llvm.lifetime.start.p0(i64 16, ptr nonnull %11)
  store ptr %.sroa.04.0.copyload, ptr %11, align 8, !noalias !668
  %17 = getelementptr inbounds nuw i8, ptr %11, i64 8
  store i32 %.sroa.25.0.copyload, ptr %17, align 8, !noalias !668
  %18 = getelementptr inbounds nuw i8, ptr %1, i64 24
  %19 = load ptr, ptr %18, align 8, !tbaa !157, !noalias !668
  %.not.i.i = icmp eq ptr %19, null
  br i1 %.not.i.i, label %20, label %_ZNKSt8functionIFN5Yosys5SExprENS0_10Functional4NodeEEEclES3_.exit

20:                                               ; preds = %8
  tail call void @_ZSt25__throw_bad_function_callv() #28, !noalias !668
  unreachable

_ZNKSt8functionIFN5Yosys5SExprENS0_10Functional4NodeEEEclES3_.exit: ; preds = %8
  %21 = getelementptr inbounds nuw i8, ptr %1, i64 32
  %22 = load ptr, ptr %21, align 8, !tbaa !159, !noalias !668
  call void %22(ptr dead_on_unwind nonnull writable sret(%"class.Yosys::SExpr") align 8 %13, ptr noundef nonnull align 8 dereferenceable(32) %16, ptr noundef nonnull align 8 dereferenceable(16) %11)
  call void @llvm.lifetime.end.p0(i64 16, ptr nonnull %11)
  invoke void @_ZN5Yosys9SExprUtil4listIJRA16_KcNS_5SExprEEEES5_DpOT_(ptr dead_on_unwind nonnull writable sret(%"class.Yosys::SExpr") align 8 %12, ptr noundef nonnull align 1 dereferenceable(16) @.str.136, ptr noundef nonnull align 8 dereferenceable(40) %13)
          to label %_ZN12_GLOBAL__N_116SmtrPrintVisitor7to_boolEON5Yosys5SExprE.exit unwind label %80

_ZN12_GLOBAL__N_116SmtrPrintVisitor7to_boolEON5Yosys5SExprE.exit: ; preds = %_ZNKSt8functionIFN5Yosys5SExprENS0_10Functional4NodeEEEclES3_.exit
  call void @llvm.lifetime.start.p0(i64 40, ptr nonnull %14) #26
  %.sroa.01.0.copyload = load ptr, ptr %6, align 8, !tbaa !544
  %.sroa.22.0..sroa_idx = getelementptr inbounds nuw i8, ptr %6, i64 8
  %.sroa.22.0.copyload = load i32, ptr %.sroa.22.0..sroa_idx, align 8, !tbaa !46
  call void @llvm.lifetime.start.p0(i64 16, ptr nonnull %10)
  store ptr %.sroa.01.0.copyload, ptr %10, align 8, !noalias !671
  %23 = getelementptr inbounds nuw i8, ptr %10, i64 8
  store i32 %.sroa.22.0.copyload, ptr %23, align 8, !noalias !671
  %24 = load ptr, ptr %18, align 8, !tbaa !157, !noalias !671
  %.not.i.i17 = icmp eq ptr %24, null
  br i1 %.not.i.i17, label %25, label %26

25:                                               ; preds = %_ZN12_GLOBAL__N_116SmtrPrintVisitor7to_boolEON5Yosys5SExprE.exit
  invoke void @_ZSt25__throw_bad_function_callv() #28
          to label %.noexc unwind label %82

.noexc:                                           ; preds = %25
  unreachable

26:                                               ; preds = %_ZN12_GLOBAL__N_116SmtrPrintVisitor7to_boolEON5Yosys5SExprE.exit
  %27 = load ptr, ptr %21, align 8, !tbaa !159, !noalias !671
  invoke void %27(ptr dead_on_unwind nonnull writable sret(%"class.Yosys::SExpr") align 8 %14, ptr noundef nonnull align 8 dereferenceable(32) %16, ptr noundef nonnull align 8 dereferenceable(16) %10)
          to label %28 unwind label %82

28:                                               ; preds = %26
  call void @llvm.lifetime.end.p0(i64 16, ptr nonnull %10)
  call void @llvm.lifetime.start.p0(i64 40, ptr nonnull %15) #26
  call void @llvm.lifetime.start.p0(i64 16, ptr nonnull %9)
  store ptr %4, ptr %9, align 8, !noalias !674
  %29 = getelementptr inbounds nuw i8, ptr %9, i64 8
  store i32 %5, ptr %29, align 8, !noalias !674
  %30 = load ptr, ptr %18, align 8, !tbaa !157, !noalias !674
  %.not.i.i20 = icmp eq ptr %30, null
  br i1 %.not.i.i20, label %31, label %32

31:                                               ; preds = %28
  invoke void @_ZSt25__throw_bad_function_callv() #28
          to label %.noexc21 unwind label %84

.noexc21:                                         ; preds = %31
  unreachable

32:                                               ; preds = %28
  %33 = load ptr, ptr %21, align 8, !tbaa !159, !noalias !674
  invoke void %33(ptr dead_on_unwind nonnull writable sret(%"class.Yosys::SExpr") align 8 %15, ptr noundef nonnull align 8 dereferenceable(32) %16, ptr noundef nonnull align 8 dereferenceable(16) %9)
          to label %34 unwind label %84

34:                                               ; preds = %32
  call void @llvm.lifetime.end.p0(i64 16, ptr nonnull %9)
  invoke void @_ZN5Yosys9SExprUtil4listIJRA3_KcNS_5SExprES5_S5_EEES5_DpOT_(ptr dead_on_unwind writable sret(%"class.Yosys::SExpr") align 8 %0, ptr noundef nonnull align 1 dereferenceable(3) @.str.43, ptr noundef nonnull align 8 dereferenceable(40) %12, ptr noundef nonnull align 8 dereferenceable(40) %14, ptr noundef nonnull align 8 dereferenceable(40) %15)
          to label %35 unwind label %86

35:                                               ; preds = %34
  %36 = getelementptr inbounds nuw i8, ptr %15, i64 32
  %37 = load i8, ptr %36, align 8, !tbaa !117
  %switch.i.i.i = icmp eq i8 %37, 0
  br i1 %switch.i.i.i, label %.noexc1.i.i, label %38

.noexc1.i.i:                                      ; preds = %35
  call void @_ZNSt6vectorIN5Yosys5SExprESaIS1_EED2Ev(ptr noundef nonnull align 8 dereferenceable(40) %15) #26
  br label %_ZN5Yosys5SExprD2Ev.exit

38:                                               ; preds = %35
  %39 = load ptr, ptr %15, align 8, !tbaa !17
  %40 = getelementptr inbounds nuw i8, ptr %15, i64 16
  %41 = icmp eq ptr %39, %40
  br i1 %41, label %_ZNKSt7__cxx1112basic_stringIcSt11char_traitsIcESaIcEE11_M_is_localEv.exit.thread.i.i.i.i.i.i.i.i.i.i, label %_ZNKSt7__cxx1112basic_stringIcSt11char_traitsIcESaIcEE11_M_is_localEv.exit.i.i.i.i.i.i.i.i.i.i

_ZNKSt7__cxx1112basic_stringIcSt11char_traitsIcESaIcEE11_M_is_localEv.exit.thread.i.i.i.i.i.i.i.i.i.i: ; preds = %38
  %42 = getelementptr inbounds nuw i8, ptr %15, i64 8
  %43 = load i64, ptr %42, align 8, !tbaa !22
  %44 = icmp ult i64 %43, 16
  call void @llvm.assume(i1 %44)
  br label %_ZN5Yosys5SExprD2Ev.exit

_ZNKSt7__cxx1112basic_stringIcSt11char_traitsIcESaIcEE11_M_is_localEv.exit.i.i.i.i.i.i.i.i.i.i: ; preds = %38
  %45 = load i64, ptr %40, align 8, !tbaa !23
  %46 = add i64 %45, 1
  call void @_ZdlPvm(ptr noundef %39, i64 noundef %46) #27
  br label %_ZN5Yosys5SExprD2Ev.exit

_ZN5Yosys5SExprD2Ev.exit:                         ; preds = %.noexc1.i.i, %_ZNKSt7__cxx1112basic_stringIcSt11char_traitsIcESaIcEE11_M_is_localEv.exit.thread.i.i.i.i.i.i.i.i.i.i, %_ZNKSt7__cxx1112basic_stringIcSt11char_traitsIcESaIcEE11_M_is_localEv.exit.i.i.i.i.i.i.i.i.i.i
  call void @llvm.lifetime.end.p0(i64 40, ptr nonnull %15) #26
  %47 = getelementptr inbounds nuw i8, ptr %14, i64 32
  %48 = load i8, ptr %47, align 8, !tbaa !117
  %switch.i.i.i24 = icmp eq i8 %48, 0
  br i1 %switch.i.i.i24, label %.noexc1.i.i27, label %49

.noexc1.i.i27:                                    ; preds = %_ZN5Yosys5SExprD2Ev.exit
  call void @_ZNSt6vectorIN5Yosys5SExprESaIS1_EED2Ev(ptr noundef nonnull align 8 dereferenceable(40) %14) #26
  br label %_ZN5Yosys5SExprD2Ev.exit28

49:                                               ; preds = %_ZN5Yosys5SExprD2Ev.exit
  %50 = load ptr, ptr %14, align 8, !tbaa !17
  %51 = getelementptr inbounds nuw i8, ptr %14, i64 16
  %52 = icmp eq ptr %50, %51
  br i1 %52, label %_ZNKSt7__cxx1112basic_stringIcSt11char_traitsIcESaIcEE11_M_is_localEv.exit.thread.i.i.i.i.i.i.i.i.i.i26, label %_ZNKSt7__cxx1112basic_stringIcSt11char_traitsIcESaIcEE11_M_is_localEv.exit.i.i.i.i.i.i.i.i.i.i25

_ZNKSt7__cxx1112basic_stringIcSt11char_traitsIcESaIcEE11_M_is_localEv.exit.thread.i.i.i.i.i.i.i.i.i.i26: ; preds = %49
  %53 = getelementptr inbounds nuw i8, ptr %14, i64 8
  %54 = load i64, ptr %53, align 8, !tbaa !22
  %55 = icmp ult i64 %54, 16
  call void @llvm.assume(i1 %55)
  br label %_ZN5Yosys5SExprD2Ev.exit28

_ZNKSt7__cxx1112basic_stringIcSt11char_traitsIcESaIcEE11_M_is_localEv.exit.i.i.i.i.i.i.i.i.i.i25: ; preds = %49
  %56 = load i64, ptr %51, align 8, !tbaa !23
  %57 = add i64 %56, 1
  call void @_ZdlPvm(ptr noundef %50, i64 noundef %57) #27
  br label %_ZN5Yosys5SExprD2Ev.exit28

_ZN5Yosys5SExprD2Ev.exit28:                       ; preds = %.noexc1.i.i27, %_ZNKSt7__cxx1112basic_stringIcSt11char_traitsIcESaIcEE11_M_is_localEv.exit.thread.i.i.i.i.i.i.i.i.i.i26, %_ZNKSt7__cxx1112basic_stringIcSt11char_traitsIcESaIcEE11_M_is_localEv.exit.i.i.i.i.i.i.i.i.i.i25
  call void @llvm.lifetime.end.p0(i64 40, ptr nonnull %14) #26
  %58 = getelementptr inbounds nuw i8, ptr %12, i64 32
  %59 = load i8, ptr %58, align 8, !tbaa !117
  %switch.i.i.i29 = icmp eq i8 %59, 0
  br i1 %switch.i.i.i29, label %.noexc1.i.i32, label %60

.noexc1.i.i32:                                    ; preds = %_ZN5Yosys5SExprD2Ev.exit28
  call void @_ZNSt6vectorIN5Yosys5SExprESaIS1_EED2Ev(ptr noundef nonnull align 8 dereferenceable(40) %12) #26
  br label %_ZN5Yosys5SExprD2Ev.exit33

60:                                               ; preds = %_ZN5Yosys5SExprD2Ev.exit28
  %61 = load ptr, ptr %12, align 8, !tbaa !17
  %62 = getelementptr inbounds nuw i8, ptr %12, i64 16
  %63 = icmp eq ptr %61, %62
  br i1 %63, label %_ZNKSt7__cxx1112basic_stringIcSt11char_traitsIcESaIcEE11_M_is_localEv.exit.thread.i.i.i.i.i.i.i.i.i.i31, label %_ZNKSt7__cxx1112basic_stringIcSt11char_traitsIcESaIcEE11_M_is_localEv.exit.i.i.i.i.i.i.i.i.i.i30

_ZNKSt7__cxx1112basic_stringIcSt11char_traitsIcESaIcEE11_M_is_localEv.exit.thread.i.i.i.i.i.i.i.i.i.i31: ; preds = %60
  %64 = getelementptr inbounds nuw i8, ptr %12, i64 8
  %65 = load i64, ptr %64, align 8, !tbaa !22
  %66 = icmp ult i64 %65, 16
  call void @llvm.assume(i1 %66)
  br label %_ZN5Yosys5SExprD2Ev.exit33

_ZNKSt7__cxx1112basic_stringIcSt11char_traitsIcESaIcEE11_M_is_localEv.exit.i.i.i.i.i.i.i.i.i.i30: ; preds = %60
  %67 = load i64, ptr %62, align 8, !tbaa !23
  %68 = add i64 %67, 1
  call void @_ZdlPvm(ptr noundef %61, i64 noundef %68) #27
  br label %_ZN5Yosys5SExprD2Ev.exit33

_ZN5Yosys5SExprD2Ev.exit33:                       ; preds = %.noexc1.i.i32, %_ZNKSt7__cxx1112basic_stringIcSt11char_traitsIcESaIcEE11_M_is_localEv.exit.thread.i.i.i.i.i.i.i.i.i.i31, %_ZNKSt7__cxx1112basic_stringIcSt11char_traitsIcESaIcEE11_M_is_localEv.exit.i.i.i.i.i.i.i.i.i.i30
  store i8 -1, ptr %58, align 8, !tbaa !117
  %69 = getelementptr inbounds nuw i8, ptr %13, i64 32
  %70 = load i8, ptr %69, align 8, !tbaa !117
  %switch.i.i.i34 = icmp eq i8 %70, 0
  br i1 %switch.i.i.i34, label %.noexc1.i.i37, label %71

.noexc1.i.i37:                                    ; preds = %_ZN5Yosys5SExprD2Ev.exit33
  call void @_ZNSt6vectorIN5Yosys5SExprESaIS1_EED2Ev(ptr noundef nonnull align 8 dereferenceable(40) %13) #26
  br label %_ZN5Yosys5SExprD2Ev.exit38

71:                                               ; preds = %_ZN5Yosys5SExprD2Ev.exit33
  %72 = load ptr, ptr %13, align 8, !tbaa !17
  %73 = getelementptr inbounds nuw i8, ptr %13, i64 16
  %74 = icmp eq ptr %72, %73
  br i1 %74, label %_ZNKSt7__cxx1112basic_stringIcSt11char_traitsIcESaIcEE11_M_is_localEv.exit.thread.i.i.i.i.i.i.i.i.i.i36, label %_ZNKSt7__cxx1112basic_stringIcSt11char_traitsIcESaIcEE11_M_is_localEv.exit.i.i.i.i.i.i.i.i.i.i35

_ZNKSt7__cxx1112basic_stringIcSt11char_traitsIcESaIcEE11_M_is_localEv.exit.thread.i.i.i.i.i.i.i.i.i.i36: ; preds = %71
  %75 = getelementptr inbounds nuw i8, ptr %13, i64 8
  %76 = load i64, ptr %75, align 8, !tbaa !22
  %77 = icmp ult i64 %76, 16
  call void @llvm.assume(i1 %77)
  br label %_ZN5Yosys5SExprD2Ev.exit38

_ZNKSt7__cxx1112basic_stringIcSt11char_traitsIcESaIcEE11_M_is_localEv.exit.i.i.i.i.i.i.i.i.i.i35: ; preds = %71
  %78 = load i64, ptr %73, align 8, !tbaa !23
  %79 = add i64 %78, 1
  call void @_ZdlPvm(ptr noundef %72, i64 noundef %79) #27
  br label %_ZN5Yosys5SExprD2Ev.exit38

_ZN5Yosys5SExprD2Ev.exit38:                       ; preds = %.noexc1.i.i37, %_ZNKSt7__cxx1112basic_stringIcSt11char_traitsIcESaIcEE11_M_is_localEv.exit.thread.i.i.i.i.i.i.i.i.i.i36, %_ZNKSt7__cxx1112basic_stringIcSt11char_traitsIcESaIcEE11_M_is_localEv.exit.i.i.i.i.i.i.i.i.i.i35
  call void @llvm.lifetime.end.p0(i64 40, ptr nonnull %13) #26
  call void @llvm.lifetime.end.p0(i64 40, ptr nonnull %12) #26
  ret void

80:                                               ; preds = %_ZNKSt8functionIFN5Yosys5SExprENS0_10Functional4NodeEEEclES3_.exit
  %81 = landingpad { ptr, i32 }
          cleanup
  br label %90

82:                                               ; preds = %26, %25
  %83 = landingpad { ptr, i32 }
          cleanup
  br label %89

84:                                               ; preds = %32, %31
  %85 = landingpad { ptr, i32 }
          cleanup
  br label %88

86:                                               ; preds = %34
  %87 = landingpad { ptr, i32 }
          cleanup
  call void @_ZN5Yosys5SExprD2Ev(ptr noundef nonnull align 8 dereferenceable(40) %15) #26
  br label %88

88:                                               ; preds = %86, %84
  %.pn = phi { ptr, i32 } [ %87, %86 ], [ %85, %84 ]
  call void @llvm.lifetime.end.p0(i64 40, ptr nonnull %15) #26
  call void @_ZN5Yosys5SExprD2Ev(ptr noundef nonnull align 8 dereferenceable(40) %14) #26
  br label %89

89:                                               ; preds = %88, %82
  %.pn.pn = phi { ptr, i32 } [ %.pn, %88 ], [ %83, %82 ]
  call void @llvm.lifetime.end.p0(i64 40, ptr nonnull %14) #26
  call void @_ZN5Yosys5SExprD2Ev(ptr noundef nonnull align 8 dereferenceable(40) %12) #26
  br label %90

90:                                               ; preds = %89, %80
  %.pn.pn.pn = phi { ptr, i32 } [ %.pn.pn, %89 ], [ %81, %80 ]
  call void @_ZN5Yosys5SExprD2Ev(ptr noundef nonnull align 8 dereferenceable(40) %13) #26
  call void @llvm.lifetime.end.p0(i64 40, ptr nonnull %13) #26
  call void @llvm.lifetime.end.p0(i64 40, ptr nonnull %12) #26
  resume { ptr, i32 } %.pn.pn.pn
}